(lp0
(S'cppflags'
p1
ccopy_reg
_reconstructor
p2
(cino.utils
SpaceList
p3
c__builtin__
list
p4
(lp5
S'-mmcu=atmega32u4'
p6
aS'-DF_CPU=16000000L'
p7
aS'-DARDUINO=157'
p8
aS'-I/usr/local/share/arduino/hardware/arduino/avr/cores/arduino'
p9
aS'-ffunction-sections'
p10
aS'-fdata-sections'
p11
aS'-g'
p12
aS'-Os'
p13
aS'-w'
p14
aS'-DUSB_VID=0x2341'
p15
aS'-DUSB_PID=0x8041'
p16
aS'-I/usr/local/share/arduino/hardware/arduino/avr/variants/yun'
p17
atp18
Rp19
tp20
a(S'version.txt'
p21
S'/usr/local/share/arduino/lib/version.txt'
p22
tp23
a(S'cc'
p24
S'/usr/local/share/arduino/hardware/tools/avr/bin/avr-gcc'
p25
tp26
a(S'make'
p27
S'/usr/bin/make'
p28
tp29
a(S'build_dir'
p30
S'.build/yun'
p31
tp32
a(S'arduino_core_dir'
p33
S'/usr/local/share/arduino/hardware/arduino/avr/cores/arduino'
p34
tp35
a(S'boards.txt'
p36
(lp37
S'/usr/local/share/arduino/hardware/arduino/avr/boards.txt'
p38
aS'/usr/local/share/arduino/hardware/arduino/sam/boards.txt'
p39
atp40
a(S'cxxflags'
p41
g2
(g3
g4
(lp42
S'-fno-exceptions'
p43
atp44
Rp45
tp46
a(S'arduino_variants_dir'
p47
S'/usr/local/share/arduino/hardware/arduino/avr/variants'
p48
tp49
a(S'deps'
p50
g2
(g3
g4
(lp51
tp52
Rp53
tp54
a(S'ar'
p55
S'/usr/local/share/arduino/hardware/tools/avr/bin/avr-ar'
p56
tp57
a(S'names'
p58
(dp59
S'cpp'
p60
S'%s.cpp'
p61
sS'obj'
p62
S'%s.o'
p63
sg50
S'%s.d'
p64
sS'lib'
p65
S'lib%s.a'
p66
stp67
a(S'cflags'
p68
g2
(g3
g4
(lp69
tp70
Rp71
tp72
a(S'ldflags'
p73
g2
(g3
g4
(lp74
g6
aS'-Wl,-Os'
p75
aS'-Wl,--gc-sections'
p76
atp77
Rp78
tp79
a(S'arduino_libraries_dir'
p80
S'/usr/local/share/arduino/libraries'
p81
tp82
a(S'arduino_lib_version'
p83
g2
(cino.environment
Version
p84
c__builtin__
tuple
p85
(I1
I5
I7
tp86
tp87
Rp88
tp89
a(S'objcopy'
p90
S'/usr/local/share/arduino/hardware/tools/avr/bin/avr-objcopy'
p91
tp92
a(S'board_models'
p93
cino.environment
BoardModels
p94
((lp95
(lp96
S'menu'
p97
a(dp98
S'cpu'
p99
S'Processor'
p100
sS'_coredir'
p101
S'/usr/local/share/arduino/hardware/arduino/avr'
p102
saa(lp103
S'yun'
p104
a(dp105
S'name'
p106
S'Arduino Y\xc3\xban'
p107
sS'vid'
p108
(dp109
S'1'
p110
S'0x2341'
p111
sS'0'
p112
S'0x2341'
p113
ssS'pid'
p114
(dp115
g110
S'0x8041'
p116
sg112
S'0x0041'
p117
ssS'upload'
p118
(dp119
S'protocol'
p120
S'avr109'
p121
sS'disable_flushing'
p122
S'true'
p123
sS'tool'
p124
S'avrdude'
p125
sS'maximum_data_size'
p126
S'2560'
p127
sS'via_ssh'
p128
S'true'
p129
sS'maximum_size'
p130
S'28672'
p131
sS'use_1200bps_touch'
p132
S'true'
p133
sS'speed'
p134
S'57600'
p135
sS'wait_for_upload_port'
p136
S'true'
p137
ssS'build'
p138
(dp139
S'core'
p140
S'arduino'
p141
sS'f_cpu'
p142
S'16000000L'
p143
sS'vid'
p144
S'0x2341'
p145
sS'usb_product'
p146
S'"Arduino Yun"'
p147
sS'pid'
p148
S'0x8041'
p149
sS'extra_flags'
p150
S'{build.usb_flags}'
p151
sS'board'
p152
S'AVR_YUN'
p153
sS'mcu'
p154
S'atmega32u4'
p155
sS'variant'
p156
S'yun'
p157
ssg101
S'/usr/local/share/arduino/hardware/arduino/avr'
p158
sS'bootloader'
p159
(dp160
S'extended_fuses'
p161
S'0xfb'
p162
sS'high_fuses'
p163
S'0xd8'
p164
sS'low_fuses'
p165
S'0xff'
p166
sS'lock_bits'
p167
S'0x2F'
p168
sS'tool'
p169
S'avrdude'
p170
sS'file'
p171
S'caterina/Caterina-Yun.hex'
p172
sS'unlock_bits'
p173
S'0x3F'
p174
ssaa(lp175
S'uno'
p176
a(dp177
S'name'
p178
S'Arduino Uno'
p179
sS'vid'
p180
(dp181
g110
S'0x2341'
p182
sg112
S'0x2341'
p183
ssS'pid'
p184
(dp185
g110
S'0x0001'
p186
sg112
S'0x0043'
p187
ssS'upload'
p188
(dp189
S'speed'
p190
S'115200'
p191
sS'tool'
p192
S'avrdude'
p193
sS'protocol'
p194
S'arduino'
p195
sS'maximum_size'
p196
S'32256'
p197
sS'maximum_data_size'
p198
S'2048'
p199
ssS'build'
p200
(dp201
S'core'
p202
S'arduino'
p203
sS'mcu'
p204
S'atmega328p'
p205
sS'f_cpu'
p206
S'16000000L'
p207
sS'board'
p208
S'AVR_UNO'
p209
sS'variant'
p210
S'standard'
p211
ssg101
S'/usr/local/share/arduino/hardware/arduino/avr'
p212
sS'bootloader'
p213
(dp214
S'extended_fuses'
p215
S'0x05'
p216
sS'high_fuses'
p217
S'0xDE'
p218
sS'low_fuses'
p219
S'0xFF'
p220
sS'lock_bits'
p221
S'0x0F'
p222
sS'tool'
p223
S'avrdude'
p224
sS'file'
p225
S'optiboot/optiboot_atmega328.hex'
p226
sS'unlock_bits'
p227
S'0x3F'
p228
ssaa(lp229
S'diecimila'
p230
a(dp231
S'name'
p232
S'Arduino Duemilanove or Diecimila'
p233
sS'menu'
p234
(dp235
S'cpu'
p236
(dp237
S'atmega168'
p238
(dp239
S'bootloader'
p240
(dp241
S'extended_fuses'
p242
S'0x00'
p243
sS'high_fuses'
p244
S'0xdd'
p245
sS'file'
p246
S'atmega/ATmegaBOOT_168_diecimila.hex'
p247
ssS'upload'
p248
(dp249
S'maximum_size'
p250
S'14336'
p251
sS'speed'
p252
S'19200'
p253
sS'maximum_data_size'
p254
S'1024'
p255
ssS'_'
p256
S'ATmega168'
p257
sS'build'
p258
(dp259
S'mcu'
p260
S'atmega168'
p261
sssS'atmega328'
p262
(dp263
S'bootloader'
p264
(dp265
S'extended_fuses'
p266
S'0x05'
p267
sS'high_fuses'
p268
S'0xDA'
p269
sS'file'
p270
S'atmega/ATmegaBOOT_168_atmega328.hex'
p271
ssS'upload'
p272
(dp273
S'maximum_size'
p274
S'30720'
p275
sS'speed'
p276
S'57600'
p277
sS'maximum_data_size'
p278
S'2048'
p279
ssg256
S'ATmega328'
p280
sS'build'
p281
(dp282
S'mcu'
p283
S'atmega328p'
p284
sssssS'upload'
p285
(dp286
S'tool'
p287
S'avrdude'
p288
sS'protocol'
p289
S'arduino'
p290
ssS'build'
p291
(dp292
S'core'
p293
S'arduino'
p294
sS'f_cpu'
p295
S'16000000L'
p296
sS'board'
p297
S'AVR_DUEMILANOVE'
p298
sS'variant'
p299
S'standard'
p300
ssg101
S'/usr/local/share/arduino/hardware/arduino/avr'
p301
sS'bootloader'
p302
(dp303
S'low_fuses'
p304
S'0xFF'
p305
sS'lock_bits'
p306
S'0x0F'
p307
sS'tool'
p308
S'avrdude'
p309
sS'unlock_bits'
p310
S'0x3F'
p311
ssaa(lp312
S'nano'
p313
a(dp314
S'name'
p315
S'Arduino Nano'
p316
sS'menu'
p317
(dp318
S'cpu'
p319
(dp320
S'atmega168'
p321
(dp322
S'bootloader'
p323
(dp324
S'low_fuses'
p325
S'0xff'
p326
sS'extended_fuses'
p327
S'0x00'
p328
sS'high_fuses'
p329
S'0xdd'
p330
sS'file'
p331
S'atmega/ATmegaBOOT_168_diecimila.hex'
p332
ssS'upload'
p333
(dp334
S'maximum_size'
p335
S'14336'
p336
sS'speed'
p337
S'19200'
p338
sS'maximum_data_size'
p339
S'1024'
p340
ssg256
S'ATmega168'
p341
sS'build'
p342
(dp343
S'mcu'
p344
S'atmega168'
p345
sssS'atmega328'
p346
(dp347
S'bootloader'
p348
(dp349
S'low_fuses'
p350
S'0xFF'
p351
sS'extended_fuses'
p352
S'0x05'
p353
sS'high_fuses'
p354
S'0xDA'
p355
sS'file'
p356
S'atmega/ATmegaBOOT_168_atmega328.hex'
p357
ssS'upload'
p358
(dp359
S'maximum_size'
p360
S'30720'
p361
sS'speed'
p362
S'57600'
p363
sS'maximum_data_size'
p364
S'2048'
p365
ssg256
S'ATmega328'
p366
sS'build'
p367
(dp368
S'mcu'
p369
S'atmega328p'
p370
sssssS'upload'
p371
(dp372
S'tool'
p373
S'avrdude'
p374
sS'protocol'
p375
S'arduino'
p376
ssS'build'
p377
(dp378
S'core'
p379
S'arduino'
p380
sS'f_cpu'
p381
S'16000000L'
p382
sS'board'
p383
S'AVR_NANO'
p384
sS'variant'
p385
S'eightanaloginputs'
p386
ssg101
S'/usr/local/share/arduino/hardware/arduino/avr'
p387
sS'bootloader'
p388
(dp389
S'lock_bits'
p390
S'0x0F'
p391
sS'tool'
p392
S'avrdude'
p393
sS'unlock_bits'
p394
S'0x3F'
p395
ssaa(lp396
S'mega'
p397
a(dp398
S'name'
p399
S'Arduino Mega or Mega 2560'
p400
sS'vid'
p401
(dp402
g110
S'0x2341'
p403
sg112
S'0x2341'
p404
ssS'menu'
p405
(dp406
S'cpu'
p407
(dp408
S'atmega1280'
p409
(dp410
S'bootloader'
p411
(dp412
S'extended_fuses'
p413
S'0xF5'
p414
sS'high_fuses'
p415
S'0xDA'
p416
sS'file'
p417
S'atmega/ATmegaBOOT_168_atmega1280.hex'
p418
ssS'upload'
p419
(dp420
S'speed'
p421
S'57600'
p422
sS'maximum_size'
p423
S'126976'
p424
sS'protocol'
p425
S'arduino'
p426
ssg256
S'ATmega1280'
p427
sS'build'
p428
(dp429
S'mcu'
p430
S'atmega1280'
p431
sS'board'
p432
S'AVR_MEGA'
p433
sssS'atmega2560'
p434
(dp435
S'bootloader'
p436
(dp437
S'extended_fuses'
p438
S'0xFD'
p439
sS'high_fuses'
p440
S'0xD8'
p441
sS'file'
p442
S'stk500v2/stk500boot_v2_mega2560.hex'
p443
ssS'upload'
p444
(dp445
S'speed'
p446
S'115200'
p447
sS'maximum_size'
p448
S'258048'
p449
sS'protocol'
p450
S'wiring'
p451
ssg256
S'ATmega2560 (Mega 2560)'
p452
sS'build'
p453
(dp454
S'mcu'
p455
S'atmega2560'
p456
sS'board'
p457
S'AVR_MEGA2560'
p458
sssssS'pid'
p459
(dp460
g110
S'0x0042'
p461
sg112
S'0x0010'
p462
ssS'upload'
p463
(dp464
S'tool'
p465
S'avrdude'
p466
sS'maximum_data_size'
p467
S'8192'
p468
ssS'build'
p469
(dp470
S'core'
p471
S'arduino'
p472
sS'f_cpu'
p473
S'16000000L'
p474
sS'board'
p475
S'AVR_MEGA2560'
p476
sS'variant'
p477
S'mega'
p478
ssg101
S'/usr/local/share/arduino/hardware/arduino/avr'
p479
sS'bootloader'
p480
(dp481
S'low_fuses'
p482
S'0xFF'
p483
sS'lock_bits'
p484
S'0x0F'
p485
sS'tool'
p486
S'avrdude'
p487
sS'unlock_bits'
p488
S'0x3F'
p489
ssaa(lp490
S'megaADK'
p491
a(dp492
S'name'
p493
S'Arduino Mega ADK'
p494
sS'vid'
p495
(dp496
g110
S'0x2341'
p497
sg112
S'0x2341'
p498
ssS'pid'
p499
(dp500
g110
S'0x0044'
p501
sg112
S'0x003f'
p502
ssS'upload'
p503
(dp504
S'speed'
p505
S'115200'
p506
sS'tool'
p507
S'avrdude'
p508
sS'protocol'
p509
S'wiring'
p510
sS'maximum_size'
p511
S'258048'
p512
sS'maximum_data_size'
p513
S'8192'
p514
ssS'build'
p515
(dp516
S'core'
p517
S'arduino'
p518
sS'mcu'
p519
S'atmega2560'
p520
sS'f_cpu'
p521
S'16000000L'
p522
sS'board'
p523
S'AVR_ADK'
p524
sS'variant'
p525
S'mega'
p526
ssg101
S'/usr/local/share/arduino/hardware/arduino/avr'
p527
sS'bootloader'
p528
(dp529
S'extended_fuses'
p530
S'0xFD'
p531
sS'high_fuses'
p532
S'0xD8'
p533
sS'low_fuses'
p534
S'0xFF'
p535
sS'lock_bits'
p536
S'0x0F'
p537
sS'tool'
p538
S'avrdude'
p539
sS'file'
p540
S'stk500v2/stk500boot_v2_mega2560.hex'
p541
sS'unlock_bits'
p542
S'0x3F'
p543
ssaa(lp544
S'leonardo'
p545
a(dp546
S'name'
p547
S'Arduino Leonardo'
p548
sS'vid'
p549
(dp550
g110
S'0x2341'
p551
sg112
S'0x2341'
p552
ssS'pid'
p553
(dp554
g110
S'0x8036'
p555
sg112
S'0x0036'
p556
ssS'upload'
p557
(dp558
S'protocol'
p559
S'avr109'
p560
sS'disable_flushing'
p561
S'true'
p562
sS'tool'
p563
S'avrdude'
p564
sS'maximum_data_size'
p565
S'2560'
p566
sS'maximum_size'
p567
S'28672'
p568
sS'use_1200bps_touch'
p569
S'true'
p570
sS'speed'
p571
S'57600'
p572
sS'wait_for_upload_port'
p573
S'true'
p574
ssS'build'
p575
(dp576
S'core'
p577
S'arduino'
p578
sS'f_cpu'
p579
S'16000000L'
p580
sS'vid'
p581
S'0x2341'
p582
sS'usb_product'
p583
S'"Arduino Leonardo"'
p584
sS'pid'
p585
S'0x8036'
p586
sS'extra_flags'
p587
S'{build.usb_flags}'
p588
sS'board'
p589
S'AVR_LEONARDO'
p590
sS'mcu'
p591
S'atmega32u4'
p592
sS'variant'
p593
S'leonardo'
p594
ssg101
S'/usr/local/share/arduino/hardware/arduino/avr'
p595
sS'bootloader'
p596
(dp597
S'extended_fuses'
p598
S'0xcb'
p599
sS'high_fuses'
p600
S'0xd8'
p601
sS'low_fuses'
p602
S'0xff'
p603
sS'lock_bits'
p604
S'0x2F'
p605
sS'tool'
p606
S'avrdude'
p607
sS'file'
p608
S'caterina/Caterina-Leonardo.hex'
p609
sS'unlock_bits'
p610
S'0x3F'
p611
ssaa(lp612
S'micro'
p613
a(dp614
S'build'
p615
(dp616
S'core'
p617
S'arduino'
p618
sS'f_cpu'
p619
S'16000000L'
p620
sS'vid'
p621
S'0x2341'
p622
sS'usb_product'
p623
S'"Arduino Micro"'
p624
sS'pid'
p625
S'0x8037'
p626
sS'extra_flags'
p627
S'{build.usb_flags}'
p628
sS'board'
p629
S'AVR_MICRO'
p630
sS'mcu'
p631
S'atmega32u4'
p632
sS'variant'
p633
S'micro'
p634
ssS'bootloader'
p635
(dp636
S'extended_fuses'
p637
S'0xcb'
p638
sS'high_fuses'
p639
S'0xd8'
p640
sS'low_fuses'
p641
S'0xff'
p642
sS'lock_bits'
p643
S'0x2F'
p644
sS'tool'
p645
S'avrdude'
p646
sS'file'
p647
S'caterina/Caterina-Micro.hex'
p648
sS'unlock_bits'
p649
S'0x3F'
p650
ssS'upload'
p651
(dp652
S'protocol'
p653
S'avr109'
p654
sS'disable_flushing'
p655
S'true'
p656
sS'tool'
p657
S'avrdude'
p658
sS'maximum_data_size'
p659
S'2560'
p660
sS'maximum_size'
p661
S'28672'
p662
sS'use_1200bps_touch'
p663
S'true'
p664
sS'speed'
p665
S'57600'
p666
sS'wait_for_upload_port'
p667
S'true'
p668
ssS'name'
p669
S'Arduino Micro'
p670
sg101
S'/usr/local/share/arduino/hardware/arduino/avr'
p671
saa(lp672
S'esplora'
p673
a(dp674
S'name'
p675
S'Arduino Esplora'
p676
sS'vid'
p677
(dp678
g110
S'0x2341'
p679
sg112
S'0x2341'
p680
ssS'pid'
p681
(dp682
g110
S'0x803c'
p683
sg112
S'0x003c'
p684
ssS'upload'
p685
(dp686
S'protocol'
p687
S'avr109'
p688
sS'disable_flushing'
p689
S'true'
p690
sS'tool'
p691
S'avrdude'
p692
sS'maximum_data_size'
p693
S'2560'
p694
sS'maximum_size'
p695
S'28672'
p696
sS'use_1200bps_touch'
p697
S'true'
p698
sS'speed'
p699
S'57600'
p700
sS'wait_for_upload_port'
p701
S'true'
p702
ssS'build'
p703
(dp704
S'core'
p705
S'arduino'
p706
sS'f_cpu'
p707
S'16000000L'
p708
sS'vid'
p709
S'0x2341'
p710
sS'usb_product'
p711
S'"Arduino Esplora"'
p712
sS'pid'
p713
S'0x803c'
p714
sS'extra_flags'
p715
S'{build.usb_flags}'
p716
sS'board'
p717
S'AVR_ESPLORA'
p718
sS'mcu'
p719
S'atmega32u4'
p720
sS'variant'
p721
S'leonardo'
p722
ssg101
S'/usr/local/share/arduino/hardware/arduino/avr'
p723
sS'bootloader'
p724
(dp725
S'extended_fuses'
p726
S'0xcb'
p727
sS'high_fuses'
p728
S'0xd8'
p729
sS'low_fuses'
p730
S'0xff'
p731
sS'lock_bits'
p732
S'0x2F'
p733
sS'tool'
p734
S'avrdude'
p735
sS'file'
p736
S'caterina/Caterina-Esplora.hex'
p737
sS'unlock_bits'
p738
S'0x3F'
p739
ssaa(lp740
S'mini'
p741
a(dp742
S'name'
p743
S'Arduino Mini'
p744
sS'menu'
p745
(dp746
S'cpu'
p747
(dp748
S'atmega168'
p749
(dp750
S'bootloader'
p751
(dp752
S'extended_fuses'
p753
S'0x00'
p754
sS'high_fuses'
p755
S'0xdd'
p756
sS'file'
p757
S'atmega/ATmegaBOOT_168_ng.hex'
p758
ssS'upload'
p759
(dp760
S'maximum_size'
p761
S'14336'
p762
sS'speed'
p763
S'19200'
p764
sS'maximum_data_size'
p765
S'1024'
p766
ssg256
S'ATmega168'
p767
sS'build'
p768
(dp769
S'mcu'
p770
S'atmega168'
p771
sssS'atmega328'
p772
(dp773
S'bootloader'
p774
(dp775
S'extended_fuses'
p776
S'0x05'
p777
sS'high_fuses'
p778
S'0xd8'
p779
sS'file'
p780
S'optiboot/optiboot_atmega328-Mini.hex'
p781
ssS'upload'
p782
(dp783
S'maximum_size'
p784
S'28672'
p785
sS'speed'
p786
S'115200'
p787
sS'maximum_data_size'
p788
S'2048'
p789
ssg256
S'ATmega328'
p790
sS'build'
p791
(dp792
S'mcu'
p793
S'atmega328p'
p794
sssssS'upload'
p795
(dp796
S'tool'
p797
S'avrdude'
p798
sS'protocol'
p799
S'arduino'
p800
ssS'build'
p801
(dp802
S'core'
p803
S'arduino'
p804
sS'f_cpu'
p805
S'16000000L'
p806
sS'board'
p807
S'AVR_MINI'
p808
sS'variant'
p809
S'eightanaloginputs'
p810
ssg101
S'/usr/local/share/arduino/hardware/arduino/avr'
p811
sS'bootloader'
p812
(dp813
S'low_fuses'
p814
S'0xff'
p815
sS'lock_bits'
p816
S'0x0F'
p817
sS'tool'
p818
S'avrdude'
p819
sS'unlock_bits'
p820
S'0x3F'
p821
ssaa(lp822
S'ethernet'
p823
a(dp824
S'build'
p825
(dp826
S'f_cpu'
p827
S'16000000L'
p828
sS'mcu'
p829
S'atmega328p'
p830
sS'variant'
p831
S'ethernet'
p832
sS'board'
p833
S'AVR_ETHERNET'
p834
sS'core'
p835
S'arduino'
p836
ssS'bootloader'
p837
(dp838
S'extended_fuses'
p839
S'0x05'
p840
sS'high_fuses'
p841
S'0xde'
p842
sS'low_fuses'
p843
S'0xff'
p844
sS'lock_bits'
p845
S'0x0F'
p846
sS'tool'
p847
S'avrdude'
p848
sS'file'
p849
S'optiboot/optiboot_atmega328.hex'
p850
sS'unlock_bits'
p851
S'0x3F'
p852
ssS'upload'
p853
(dp854
S'speed'
p855
S'115200'
p856
sS'tool'
p857
S'avrdude'
p858
sS'protocol'
p859
S'arduino'
p860
sS'maximum_size'
p861
S'32256'
p862
sS'maximum_data_size'
p863
S'2048'
p864
ssS'name'
p865
S'Arduino Ethernet'
p866
sg101
S'/usr/local/share/arduino/hardware/arduino/avr'
p867
saa(lp868
S'fio'
p869
a(dp870
S'build'
p871
(dp872
S'core'
p873
S'arduino'
p874
sS'mcu'
p875
S'atmega328p'
p876
sS'f_cpu'
p877
S'8000000L'
p878
sS'board'
p879
S'AVR_FIO'
p880
sS'variant'
p881
S'eightanaloginputs'
p882
ssS'bootloader'
p883
(dp884
S'extended_fuses'
p885
S'0x05'
p886
sS'high_fuses'
p887
S'0xDA'
p888
sS'low_fuses'
p889
S'0xFF'
p890
sS'lock_bits'
p891
S'0x0F'
p892
sS'tool'
p893
S'avrdude'
p894
sS'file'
p895
S'atmega/ATmegaBOOT_168_atmega328_pro_8MHz.hex'
p896
sS'unlock_bits'
p897
S'0x3F'
p898
ssS'upload'
p899
(dp900
S'speed'
p901
S'57600'
p902
sS'tool'
p903
S'avrdude'
p904
sS'protocol'
p905
S'arduino'
p906
sS'maximum_size'
p907
S'30720'
p908
sS'maximum_data_size'
p909
S'2048'
p910
ssS'name'
p911
S'Arduino Fio'
p912
sg101
S'/usr/local/share/arduino/hardware/arduino/avr'
p913
saa(lp914
S'bt'
p915
a(dp916
S'name'
p917
S'Arduino BT'
p918
sS'menu'
p919
(dp920
S'cpu'
p921
(dp922
S'atmega168'
p923
(dp924
S'bootloader'
p925
(dp926
S'extended_fuses'
p927
S'0x00'
p928
sS'high_fuses'
p929
S'0xdd'
p930
sS'file'
p931
S'bt/ATmegaBOOT_168.hex'
p932
ssS'upload'
p933
(dp934
S'maximum_size'
p935
S'14336'
p936
sS'maximum_data_size'
p937
S'1024'
p938
ssg256
S'ATmega168'
p939
sS'build'
p940
(dp941
S'mcu'
p942
S'atmega168'
p943
sssS'atmega328'
p944
(dp945
S'bootloader'
p946
(dp947
S'extended_fuses'
p948
S'0x05'
p949
sS'high_fuses'
p950
S'0xd8'
p951
sS'file'
p952
S'bt/ATmegaBOOT_168_atmega328_bt.hex'
p953
ssS'upload'
p954
(dp955
S'maximum_size'
p956
S'28672'
p957
sS'maximum_data_size'
p958
S'2048'
p959
ssg256
S'ATmega328'
p960
sS'build'
p961
(dp962
S'mcu'
p963
S'atmega328p'
p964
sssssS'upload'
p965
(dp966
S'speed'
p967
S'19200'
p968
sS'tool'
p969
S'avrdude'
p970
sS'protocol'
p971
S'arduino'
p972
sS'disable_flushing'
p973
S'true'
p974
ssS'build'
p975
(dp976
S'core'
p977
S'arduino'
p978
sS'f_cpu'
p979
S'16000000L'
p980
sS'board'
p981
S'AVR_BT'
p982
sS'variant'
p983
S'eightanaloginputs'
p984
ssg101
S'/usr/local/share/arduino/hardware/arduino/avr'
p985
sS'bootloader'
p986
(dp987
S'low_fuses'
p988
S'0xff'
p989
sS'lock_bits'
p990
S'0x0F'
p991
sS'tool'
p992
S'avrdude'
p993
sS'unlock_bits'
p994
S'0x3F'
p995
ssaa(lp996
S'LilyPadUSB'
p997
a(dp998
S'build'
p999
(dp1000
S'core'
p1001
S'arduino'
p1002
sS'f_cpu'
p1003
S'8000000L'
p1004
sS'vid'
p1005
S'0x1B4F'
p1006
sS'usb_product'
p1007
S'"LilyPad USB"'
p1008
sS'pid'
p1009
S'0x9208'
p1010
sS'extra_flags'
p1011
S'{build.usb_flags}'
p1012
sS'board'
p1013
S'AVR_LILYPAD_USB'
p1014
sS'mcu'
p1015
S'atmega32u4'
p1016
sS'variant'
p1017
S'leonardo'
p1018
ssS'bootloader'
p1019
(dp1020
S'extended_fuses'
p1021
S'0xce'
p1022
sS'high_fuses'
p1023
S'0xd8'
p1024
sS'low_fuses'
p1025
S'0xff'
p1026
sS'lock_bits'
p1027
S'0x2F'
p1028
sS'tool'
p1029
S'avrdude'
p1030
sS'file'
p1031
S'caterina-LilyPadUSB/Caterina-LilyPadUSB.hex'
p1032
sS'unlock_bits'
p1033
S'0x3F'
p1034
ssS'upload'
p1035
(dp1036
S'protocol'
p1037
S'avr109'
p1038
sS'disable_flushing'
p1039
S'true'
p1040
sS'tool'
p1041
S'avrdude'
p1042
sS'maximum_data_size'
p1043
S'2560'
p1044
sS'maximum_size'
p1045
S'28672'
p1046
sS'use_1200bps_touch'
p1047
S'true'
p1048
sS'speed'
p1049
S'57600'
p1050
sS'wait_for_upload_port'
p1051
S'true'
p1052
ssS'name'
p1053
S'LilyPad Arduino USB'
p1054
sg101
S'/usr/local/share/arduino/hardware/arduino/avr'
p1055
saa(lp1056
S'lilypad'
p1057
a(dp1058
S'name'
p1059
S'LilyPad Arduino'
p1060
sS'menu'
p1061
(dp1062
S'cpu'
p1063
(dp1064
S'atmega168'
p1065
(dp1066
S'bootloader'
p1067
(dp1068
S'low_fuses'
p1069
S'0xe2'
p1070
sS'extended_fuses'
p1071
S'0x00'
p1072
sS'high_fuses'
p1073
S'0xdd'
p1074
sS'file'
p1075
S'lilypad/LilyPadBOOT_168.hex'
p1076
ssS'upload'
p1077
(dp1078
S'maximum_size'
p1079
S'14336'
p1080
sS'speed'
p1081
S'19200'
p1082
sS'maximum_data_size'
p1083
S'1024'
p1084
ssg256
S'ATmega168'
p1085
sS'build'
p1086
(dp1087
S'mcu'
p1088
S'atmega168'
p1089
sssS'atmega328'
p1090
(dp1091
S'bootloader'
p1092
(dp1093
S'low_fuses'
p1094
S'0xFF'
p1095
sS'extended_fuses'
p1096
S'0x05'
p1097
sS'high_fuses'
p1098
S'0xDA'
p1099
sS'file'
p1100
S'atmega/ATmegaBOOT_168_atmega328_pro_8MHz.hex'
p1101
ssS'upload'
p1102
(dp1103
S'maximum_size'
p1104
S'30720'
p1105
sS'speed'
p1106
S'57600'
p1107
sS'maximum_data_size'
p1108
S'2048'
p1109
ssg256
S'ATmega328'
p1110
sS'build'
p1111
(dp1112
S'mcu'
p1113
S'atmega328p'
p1114
sssssS'upload'
p1115
(dp1116
S'tool'
p1117
S'avrdude'
p1118
sS'protocol'
p1119
S'arduino'
p1120
ssS'build'
p1121
(dp1122
S'core'
p1123
S'arduino'
p1124
sS'f_cpu'
p1125
S'8000000L'
p1126
sS'board'
p1127
S'AVR_LILYPAD'
p1128
sS'variant'
p1129
S'standard'
p1130
ssg101
S'/usr/local/share/arduino/hardware/arduino/avr'
p1131
sS'bootloader'
p1132
(dp1133
S'lock_bits'
p1134
S'0x0F'
p1135
sS'tool'
p1136
S'avrdude'
p1137
sS'unlock_bits'
p1138
S'0x3F'
p1139
ssaa(lp1140
S'pro'
p1141
a(dp1142
S'name'
p1143
S'Arduino Pro or Pro Mini'
p1144
sS'menu'
p1145
(dp1146
S'cpu'
p1147
(dp1148
S'16MHzatmega328'
p1149
(dp1150
S'bootloader'
p1151
(dp1152
S'low_fuses'
p1153
S'0xFF'
p1154
sS'extended_fuses'
p1155
S'0x05'
p1156
sS'high_fuses'
p1157
S'0xDA'
p1158
sS'file'
p1159
S'atmega/ATmegaBOOT_168_atmega328.hex'
p1160
ssS'upload'
p1161
(dp1162
S'maximum_size'
p1163
S'30720'
p1164
sS'speed'
p1165
S'57600'
p1166
sS'maximum_data_size'
p1167
S'2048'
p1168
ssg256
S'ATmega328 (5V, 16 MHz)'
p1169
sS'build'
p1170
(dp1171
S'mcu'
p1172
S'atmega328p'
p1173
sS'f_cpu'
p1174
S'16000000L'
p1175
sssS'8MHzatmega328'
p1176
(dp1177
S'bootloader'
p1178
(dp1179
S'low_fuses'
p1180
S'0xFF'
p1181
sS'extended_fuses'
p1182
S'0x05'
p1183
sS'high_fuses'
p1184
S'0xDA'
p1185
sS'file'
p1186
S'atmega/ATmegaBOOT_168_atmega328_pro_8MHz.hex'
p1187
ssS'upload'
p1188
(dp1189
S'maximum_size'
p1190
S'30720'
p1191
sS'speed'
p1192
S'57600'
p1193
sS'maximum_data_size'
p1194
S'2048'
p1195
ssg256
S'ATmega328 (3.3V, 8 MHz)'
p1196
sS'build'
p1197
(dp1198
S'mcu'
p1199
S'atmega328p'
p1200
sS'f_cpu'
p1201
S'8000000L'
p1202
sssS'8MHzatmega168'
p1203
(dp1204
S'bootloader'
p1205
(dp1206
S'low_fuses'
p1207
S'0xc6'
p1208
sS'extended_fuses'
p1209
S'0x00'
p1210
sS'high_fuses'
p1211
S'0xdd'
p1212
sS'file'
p1213
S'atmega/ATmegaBOOT_168_pro_8MHz.hex'
p1214
ssS'upload'
p1215
(dp1216
S'maximum_size'
p1217
S'14336'
p1218
sS'speed'
p1219
S'19200'
p1220
sS'maximum_data_size'
p1221
S'1024'
p1222
ssg256
S'ATmega168 (3.3V, 8 MHz)'
p1223
sS'build'
p1224
(dp1225
S'mcu'
p1226
S'atmega168'
p1227
sS'f_cpu'
p1228
S'8000000L'
p1229
sssS'16MHzatmega168'
p1230
(dp1231
S'bootloader'
p1232
(dp1233
S'low_fuses'
p1234
S'0xff'
p1235
sS'extended_fuses'
p1236
S'0x00'
p1237
sS'high_fuses'
p1238
S'0xdd'
p1239
sS'file'
p1240
S'atmega/ATmegaBOOT_168_diecimila.hex'
p1241
ssS'upload'
p1242
(dp1243
S'maximum_size'
p1244
S'14336'
p1245
sS'speed'
p1246
S'19200'
p1247
sS'maximum_data_size'
p1248
S'1024'
p1249
ssg256
S'ATmega168 (5V, 16 MHz)'
p1250
sS'build'
p1251
(dp1252
S'mcu'
p1253
S'atmega168'
p1254
sS'f_cpu'
p1255
S'16000000L'
p1256
sssssS'upload'
p1257
(dp1258
S'tool'
p1259
S'avrdude'
p1260
sS'protocol'
p1261
S'arduino'
p1262
ssS'build'
p1263
(dp1264
S'core'
p1265
S'arduino'
p1266
sS'variant'
p1267
S'eightanaloginputs'
p1268
sS'board'
p1269
S'AVR_PRO'
p1270
ssg101
S'/usr/local/share/arduino/hardware/arduino/avr'
p1271
sS'bootloader'
p1272
(dp1273
S'lock_bits'
p1274
S'0x0F'
p1275
sS'tool'
p1276
S'avrdude'
p1277
sS'unlock_bits'
p1278
S'0x3F'
p1279
ssaa(lp1280
S'atmegang'
p1281
a(dp1282
S'name'
p1283
S'Arduino NG or older'
p1284
sS'menu'
p1285
(dp1286
S'cpu'
p1287
(dp1288
S'atmega168'
p1289
(dp1290
S'bootloader'
p1291
(dp1292
S'low_fuses'
p1293
S'0xff'
p1294
sS'extended_fuses'
p1295
S'0x00'
p1296
sS'high_fuses'
p1297
S'0xdd'
p1298
sS'file'
p1299
S'atmega/ATmegaBOOT_168_ng.hex'
p1300
ssS'upload'
p1301
(dp1302
S'maximum_size'
p1303
S'14336'
p1304
sS'maximum_data_size'
p1305
S'1024'
p1306
ssg256
S'ATmega168'
p1307
sS'build'
p1308
(dp1309
S'mcu'
p1310
S'atmega168'
p1311
sssS'atmega8'
p1312
(dp1313
S'bootloader'
p1314
(dp1315
S'low_fuses'
p1316
S'0xdf'
p1317
sS'high_fuses'
p1318
S'0xca'
p1319
sS'file'
p1320
S'atmega8/ATmegaBOOT-prod-firmware-2009-11-07.hex'
p1321
ssS'upload'
p1322
(dp1323
S'maximum_size'
p1324
S'7168'
p1325
sS'maximum_data_size'
p1326
S'1024'
p1327
ssg256
S'ATmega8'
p1328
sS'build'
p1329
(dp1330
S'mcu'
p1331
S'atmega8'
p1332
sssssS'upload'
p1333
(dp1334
S'speed'
p1335
S'19200'
p1336
sS'tool'
p1337
S'avrdude'
p1338
sS'protocol'
p1339
S'arduino'
p1340
ssS'build'
p1341
(dp1342
S'core'
p1343
S'arduino'
p1344
sS'mcu'
p1345
S'atmegang'
p1346
sS'f_cpu'
p1347
S'16000000L'
p1348
sS'board'
p1349
S'AVR_NG'
p1350
sS'variant'
p1351
S'standard'
p1352
ssg101
S'/usr/local/share/arduino/hardware/arduino/avr'
p1353
sS'bootloader'
p1354
(dp1355
S'lock_bits'
p1356
S'0x0F'
p1357
sS'tool'
p1358
S'avrdude'
p1359
sS'unlock_bits'
p1360
S'0x3F'
p1361
ssaa(lp1362
S'robotControl'
p1363
a(dp1364
S'build'
p1365
(dp1366
S'core'
p1367
S'arduino'
p1368
sS'f_cpu'
p1369
S'16000000L'
p1370
sS'vid'
p1371
S'0x2341'
p1372
sS'usb_product'
p1373
S'"Robot Control"'
p1374
sS'pid'
p1375
S'0x8038'
p1376
sS'extra_flags'
p1377
S'{build.usb_flags}'
p1378
sS'board'
p1379
S'AVR_ROBOT_CONTROL'
p1380
sS'mcu'
p1381
S'atmega32u4'
p1382
sS'variant'
p1383
S'robot_control'
p1384
ssS'bootloader'
p1385
(dp1386
S'extended_fuses'
p1387
S'0xcb'
p1388
sS'high_fuses'
p1389
S'0xd8'
p1390
sS'low_fuses'
p1391
S'0xff'
p1392
sS'lock_bits'
p1393
S'0x2F'
p1394
sS'tool'
p1395
S'avrdude'
p1396
sS'file'
p1397
S'caterina-Arduino_Robot/Caterina-Robot-Control.hex'
p1398
sS'unlock_bits'
p1399
S'0x3F'
p1400
ssS'upload'
p1401
(dp1402
S'protocol'
p1403
S'avr109'
p1404
sS'disable_flushing'
p1405
S'true'
p1406
sS'tool'
p1407
S'avrdude'
p1408
sS'maximum_data_size'
p1409
S'2560'
p1410
sS'maximum_size'
p1411
S'28672'
p1412
sS'use_1200bps_touch'
p1413
S'true'
p1414
sS'speed'
p1415
S'57600'
p1416
sS'wait_for_upload_port'
p1417
S'true'
p1418
ssS'name'
p1419
S'Arduino Robot Control'
p1420
sg101
S'/usr/local/share/arduino/hardware/arduino/avr'
p1421
saa(lp1422
S'robotMotor'
p1423
a(dp1424
S'build'
p1425
(dp1426
S'core'
p1427
S'arduino'
p1428
sS'f_cpu'
p1429
S'16000000L'
p1430
sS'vid'
p1431
S'0x2341'
p1432
sS'usb_product'
p1433
S'"Robot Motor"'
p1434
sS'pid'
p1435
S'0x8039'
p1436
sS'extra_flags'
p1437
S'{build.usb_flags}'
p1438
sS'board'
p1439
S'AVR_ROBOT_MOTOR'
p1440
sS'mcu'
p1441
S'atmega32u4'
p1442
sS'variant'
p1443
S'robot_motor'
p1444
ssS'bootloader'
p1445
(dp1446
S'extended_fuses'
p1447
S'0xcb'
p1448
sS'high_fuses'
p1449
S'0xd8'
p1450
sS'low_fuses'
p1451
S'0xff'
p1452
sS'lock_bits'
p1453
S'0x2F'
p1454
sS'tool'
p1455
S'avrdude'
p1456
sS'file'
p1457
S'caterina-Arduino_Robot/Caterina-Robot-Motor.hex'
p1458
sS'unlock_bits'
p1459
S'0x3F'
p1460
ssS'upload'
p1461
(dp1462
S'protocol'
p1463
S'avr109'
p1464
sS'disable_flushing'
p1465
S'true'
p1466
sS'tool'
p1467
S'avrdude'
p1468
sS'maximum_data_size'
p1469
S'2560'
p1470
sS'maximum_size'
p1471
S'28672'
p1472
sS'use_1200bps_touch'
p1473
S'true'
p1474
sS'speed'
p1475
S'57600'
p1476
sS'wait_for_upload_port'
p1477
S'true'
p1478
ssS'name'
p1479
S'Arduino Robot Motor'
p1480
sg101
S'/usr/local/share/arduino/hardware/arduino/avr'
p1481
saa(lp1482
S'arduino_due_x_dbg'
p1483
a(dp1484
S'name'
p1485
S'Arduino Due (Programming Port)'
p1486
sS'vid'
p1487
(dp1488
g112
S'0x2341'
p1489
ssS'pid'
p1490
(dp1491
g112
S'0x003d'
p1492
ssS'upload'
p1493
(dp1494
S'protocol'
p1495
S'sam-ba'
p1496
sS'wait_for_upload_port'
p1497
S'false'
p1498
sS'tool'
p1499
S'bossac'
p1500
sS'native_usb'
p1501
S'false'
p1502
sS'maximum_size'
p1503
S'524288'
p1504
sS'use_1200bps_touch'
p1505
S'true'
p1506
ssS'build'
p1507
(dp1508
S'core'
p1509
S'arduino'
p1510
sS'f_cpu'
p1511
S'84000000L'
p1512
sS'vid'
p1513
S'0x2341'
p1514
sS'usb_product'
p1515
S'"Arduino Due"'
p1516
sS'pid'
p1517
S'0x003e'
p1518
sS'variant'
p1519
S'arduino_due_x'
p1520
sS'extra_flags'
p1521
S'-D__SAM3X8E__ -mthumb {build.usb_flags}'
p1522
sS'variant_system_lib'
p1523
S'libsam_sam3x8e_gcc_rel.a'
p1524
sS'board'
p1525
S'SAM_DUE'
p1526
sS'ldscript'
p1527
S'linker_scripts/gcc/flash.ld'
p1528
sS'mcu'
p1529
S'cortex-m3'
p1530
ssg101
S'/usr/local/share/arduino/hardware/arduino/sam'
p1531
saa(lp1532
S'arduino_due_x'
p1533
a(dp1534
S'name'
p1535
S'Arduino Due (Native USB Port)'
p1536
sS'vid'
p1537
(dp1538
g112
S'0x2341'
p1539
ssS'pid'
p1540
(dp1541
g112
S'0x003e'
p1542
ssS'upload'
p1543
(dp1544
S'protocol'
p1545
S'sam-ba'
p1546
sS'wait_for_upload_port'
p1547
S'true'
p1548
sS'tool'
p1549
S'bossac'
p1550
sS'native_usb'
p1551
S'true'
p1552
sS'maximum_size'
p1553
S'524288'
p1554
sS'use_1200bps_touch'
p1555
S'true'
p1556
ssS'build'
p1557
(dp1558
S'core'
p1559
S'arduino'
p1560
sS'f_cpu'
p1561
S'84000000L'
p1562
sS'vid'
p1563
S'0x2341'
p1564
sS'usb_product'
p1565
S'"Arduino Due"'
p1566
sS'pid'
p1567
S'0x003e'
p1568
sS'variant'
p1569
S'arduino_due_x'
p1570
sS'extra_flags'
p1571
S'-D__SAM3X8E__ -mthumb {build.usb_flags}'
p1572
sS'variant_system_lib'
p1573
S'libsam_sam3x8e_gcc_rel.a'
p1574
sS'board'
p1575
S'SAM_DUE'
p1576
sS'ldscript'
p1577
S'linker_scripts/gcc/flash.ld'
p1578
sS'mcu'
p1579
S'cortex-m3'
p1580
ssg101
S'/usr/local/share/arduino/hardware/arduino/sam'
p1581
saatp1582
Rp1583
(dp1584
S'default'
p1585
S'uno'
p1586
sbtp1587
a(S'cxx'
p1588
S'/usr/local/share/arduino/hardware/tools/avr/bin/avr-g++'
p1589
tp1590
a.